target datalayout = "e-m:e-p270:32:32-p271:32:32-p272:64:64-i64:64-i128:128-f80:128-n8:16:32:64-S128"
target triple = "x86_64-pc-linux-gnu"

%"class.Eigen::Matrix" = type { %"class.Eigen::PlainObjectBase" }
%"class.Eigen::PlainObjectBase" = type { %"class.Eigen::DenseStorage" }
%"class.Eigen::DenseStorage" = type { %"struct.Eigen::internal::plain_array" }
%"struct.Eigen::internal::plain_array" = type { [16 x double] }
%struct.ident_t = type { i32, i32, i32, i32, ptr }
%"class.Eigen::Matrix.298" = type { %"class.Eigen::PlainObjectBase.299" }
%"class.Eigen::PlainObjectBase.299" = type { %"class.Eigen::DenseStorage.306" }
%"class.Eigen::DenseStorage.306" = type { %"struct.Eigen::internal::plain_array.307" }
%"struct.Eigen::internal::plain_array.307" = type { [36 x double] }
%"struct.std::_Vector_base.496" = type { %"struct.std::_Vector_base<open3d::apps::offline_reconstruction::MatchingResult, std::allocator<open3d::apps::offline_reconstruction::MatchingResult>>::_Vector_impl" }
%"struct.std::_Vector_base<open3d::apps::offline_reconstruction::MatchingResult, std::allocator<open3d::apps::offline_reconstruction::MatchingResult>>::_Vector_impl" = type { %"struct.std::_Vector_base<open3d::apps::offline_reconstruction::MatchingResult, std::allocator<open3d::apps::offline_reconstruction::MatchingResult>>::_Vector_impl_data" }
%"struct.std::_Vector_base<open3d::apps::offline_reconstruction::MatchingResult, std::allocator<open3d::apps::offline_reconstruction::MatchingResult>>::_Vector_impl_data" = type { ptr, ptr, ptr }
%"class.open3d::apps::offline_reconstruction::MatchingResult" = type { ptr, i32, i32, i8, [15 x i8], %"class.Eigen::Matrix", %"class.Eigen::Matrix.298" }

@1 = private unnamed_addr constant %struct.ident_t { i32 0, i32 514, i32 0, i32 22, ptr @0 }, align 8

; Function Attrs: mustprogress nounwind ssp uwtable
define linkonce_odr dso_local noundef nonnull align 16 dereferenceable(448) ptr @_ZNSt6vectorIN6open3d4apps22offline_reconstruction14MatchingResultESaIS3_EEixEm(ptr noundef nonnull align 8 dereferenceable(24) %0, i64 noundef %1) #1 comdat align 2 {
  %3 = alloca ptr, align 8
  %4 = alloca i64, align 8
  store ptr %0, ptr %3, align 8, !tbaa !2158
  store i64 %1, ptr %4, align 8, !tbaa !31
  %5 = load ptr, ptr %3, align 8
  %6 = getelementptr inbounds nuw %"struct.std::_Vector_base.496", ptr %5, i32 0, i32 0
  %7 = getelementptr inbounds nuw %"struct.std::_Vector_base<open3d::apps::offline_reconstruction::MatchingResult, std::allocator<open3d::apps::offline_reconstruction::MatchingResult>>::_Vector_impl_data", ptr %6, i32 0, i32 0
  %8 = load ptr, ptr %7, align 8, !tbaa !2164
  %9 = load i64, ptr %4, align 8, !tbaa !31
  %10 = getelementptr inbounds nuw %"class.open3d::apps::offline_reconstruction::MatchingResult", ptr %8, i64 %9
  ret ptr %10
}

; Function Attrs: alwaysinline norecurse nounwind ssp uwtable
define internal void @_ZN6open3d4apps22offline_reconstruction22ReconstructionPipeline21MakePoseGraphForSceneERNS_9pipelines12registration9PoseGraphE.omp_outlined(ptr noalias noundef %0, ptr noalias noundef %1, ptr noundef nonnull align 8 dereferenceable(8) %2, ptr noundef %3, ptr noundef nonnull align 8 dereferenceable(24) %4, ptr noundef nonnull align 8 dereferenceable(24) %5) #35 personality ptr @__gxx_personality_v0 {
  %7 = alloca ptr, align 8
  %8 = alloca ptr, align 8
  %9 = alloca ptr, align 8
  %10 = alloca ptr, align 8
  %11 = alloca ptr, align 8
  %12 = alloca ptr, align 8
  %13 = alloca i32, align 4
  %14 = alloca i32, align 4
  %15 = alloca i32, align 4
  %16 = alloca i32, align 4
  %17 = alloca i32, align 4
  %18 = alloca i32, align 4
  %19 = alloca i32, align 4
  %20 = alloca i32, align 4
  %21 = alloca i32, align 4
  store ptr %0, ptr %7, align 8, !tbaa !94
  store ptr %1, ptr %8, align 8, !tbaa !94
  store ptr %2, ptr %9, align 8, !tbaa !127
  store ptr %3, ptr %10, align 8, !tbaa !1274
  store ptr %4, ptr %11, align 8, !tbaa !160
  store ptr %5, ptr %12, align 8, !tbaa !2158
  %22 = load ptr, ptr %9, align 8, !tbaa !127
  %23 = load ptr, ptr %10, align 8, !tbaa !1274
  %24 = load ptr, ptr %11, align 8, !tbaa !160
  %25 = load ptr, ptr %12, align 8, !tbaa !2158
  call void @llvm.lifetime.start.p0(i64 4, ptr %13) #7
  call void @llvm.lifetime.start.p0(i64 4, ptr %14) #7
  %26 = load i64, ptr %22, align 8, !tbaa !31
  %27 = trunc i64 %26 to i32
  store i32 %27, ptr %14, align 4, !tbaa !122
  call void @llvm.lifetime.start.p0(i64 4, ptr %15) #7
  %28 = load i32, ptr %14, align 4, !tbaa !122
  %29 = sub nsw i32 %28, 0
  %30 = sdiv i32 %29, 1
  %31 = sub nsw i32 %30, 1
  store i32 %31, ptr %15, align 4, !tbaa !122
  call void @llvm.lifetime.start.p0(i64 4, ptr %16) #7
  store i32 0, ptr %16, align 4, !tbaa !122
  call void @llvm.lifetime.end.p0(i64 4, ptr %16) #7
  %32 = load i32, ptr %14, align 4, !tbaa !122
  %33 = icmp slt i32 0, %32
  br i1 %33, label %34, label %79

34:                                               ; preds = %6
  call void @llvm.lifetime.start.p0(i64 4, ptr %17) #7
  store i32 0, ptr %17, align 4, !tbaa !122
  call void @llvm.lifetime.start.p0(i64 4, ptr %18) #7
  %35 = load i32, ptr %15, align 4, !tbaa !122
  store i32 %35, ptr %18, align 4, !tbaa !122
  call void @llvm.lifetime.start.p0(i64 4, ptr %19) #7
  store i32 1, ptr %19, align 4, !tbaa !122
  call void @llvm.lifetime.start.p0(i64 4, ptr %20) #7
  store i32 0, ptr %20, align 4, !tbaa !122
  call void @llvm.lifetime.start.p0(i64 4, ptr %21) #7
  %36 = load ptr, ptr %7, align 8
  %37 = load i32, ptr %36, align 4, !tbaa !122
  call void @__kmpc_for_static_init_4(ptr @1, i32 %37, i32 34, ptr %20, ptr %17, ptr %18, ptr %19, i32 1, i32 1)
  %38 = load i32, ptr %18, align 4, !tbaa !122
  %39 = load i32, ptr %15, align 4, !tbaa !122
  %40 = icmp sgt i32 %38, %39
  br i1 %40, label %41, label %43

41:                                               ; preds = %34
  %42 = load i32, ptr %15, align 4, !tbaa !122
  br label %45

43:                                               ; preds = %34
  %44 = load i32, ptr %18, align 4, !tbaa !122
  br label %45

45:                                               ; preds = %43, %41
  %46 = phi i32 [ %42, %41 ], [ %44, %43 ]
  store i32 %46, ptr %18, align 4, !tbaa !122
  %47 = load i32, ptr %17, align 4, !tbaa !122
  store i32 %47, ptr %13, align 4, !tbaa !122
  br label %48

48:                                               ; preds = %72, %45
  %49 = load i32, ptr %13, align 4, !tbaa !122
  %50 = load i32, ptr %18, align 4, !tbaa !122
  %51 = icmp sle i32 %49, %50
  br i1 %51, label %53, label %52

52:                                               ; preds = %48
  br label %75

53:                                               ; preds = %48
  %54 = load i32, ptr %13, align 4, !tbaa !122
  %55 = mul nsw i32 %54, 1
  %56 = add nsw i32 0, %55
  store i32 %56, ptr %21, align 4, !tbaa !122
  %57 = load i32, ptr %21, align 4, !tbaa !122
  %58 = sext i32 %57 to i64
  %59 = call noundef nonnull align 16 dereferenceable(448) ptr @_ZNSt6vectorIN6open3d4apps22offline_reconstruction14MatchingResultESaIS3_EEixEm(ptr noundef nonnull align 8 dereferenceable(24) %25, i64 noundef %58) #7
  %60 = getelementptr inbounds nuw %"class.open3d::apps::offline_reconstruction::MatchingResult", ptr %59, i32 0, i32 1
  %61 = load i32, ptr %60, align 8, !tbaa !2142
  %62 = load i32, ptr %21, align 4, !tbaa !122
  %63 = sext i32 %62 to i64
  %64 = call noundef nonnull align 16 dereferenceable(448) ptr @_ZNSt6vectorIN6open3d4apps22offline_reconstruction14MatchingResultESaIS3_EEixEm(ptr noundef nonnull align 8 dereferenceable(24) %25, i64 noundef %63) #7
  %65 = getelementptr inbounds nuw %"class.open3d::apps::offline_reconstruction::MatchingResult", ptr %64, i32 0, i32 2
  %66 = load i32, ptr %65, align 4, !tbaa !2152
  %67 = load i32, ptr %21, align 4, !tbaa !122
  %68 = sext i32 %67 to i64
  %69 = call noundef nonnull align 16 dereferenceable(448) ptr @_ZNSt6vectorIN6open3d4apps22offline_reconstruction14MatchingResultESaIS3_EEixEm(ptr noundef nonnull align 8 dereferenceable(24) %25, i64 noundef %68) #7
  invoke void @_ZN6open3d4apps22offline_reconstruction22ReconstructionPipeline20RegisterFragmentPairERKSt6vectorINSt7__cxx1112basic_stringIcSt11char_traitsIcESaIcEEESaIS9_EEiiRNS1_14MatchingResultE(ptr noundef nonnull align 8 dereferenceable(52) %23, ptr noundef nonnull align 8 dereferenceable(24) %24, i32 noundef %61, i32 noundef %66, ptr noundef nonnull align 16 dereferenceable(448) %69)
          to label %70 unwind label %80

70:                                               ; preds = %53
  br label %71

71:                                               ; preds = %70
  br label %72

72:                                               ; preds = %71
  %73 = load i32, ptr %13, align 4, !tbaa !122
  %74 = add nsw i32 %73, 1
  store i32 %74, ptr %13, align 4, !tbaa !122
  br label %48

75:                                               ; preds = %52
  br label %76

76:                                               ; preds = %75
  %77 = load ptr, ptr %7, align 8
  %78 = load i32, ptr %77, align 4, !tbaa !122
  call void @__kmpc_for_static_fini(ptr @1, i32 %78)
  call void @llvm.lifetime.end.p0(i64 4, ptr %21) #7
  call void @llvm.lifetime.end.p0(i64 4, ptr %20) #7
  call void @llvm.lifetime.end.p0(i64 4, ptr %19) #7
  call void @llvm.lifetime.end.p0(i64 4, ptr %18) #7
  call void @llvm.lifetime.end.p0(i64 4, ptr %17) #7
  br label %79

79:                                               ; preds = %76, %6
  call void @llvm.lifetime.end.p0(i64 4, ptr %15) #7
  call void @llvm.lifetime.end.p0(i64 4, ptr %14) #7
  call void @llvm.lifetime.end.p0(i64 4, ptr %13) #7
  ret void

80:                                               ; preds = %53
  %81 = landingpad { ptr, i32 }
          catch ptr null
  %82 = extractvalue { ptr, i32 } %81, 0
  call void @__clang_call_terminate(ptr %82) #40
  unreachable
}