; Function Attrs: alwaysinline norecurse nounwind ssp uwtable
define internal void @_ZN6open3d4apps22offline_reconstruction22ReconstructionPipeline21MakePoseGraphForSceneERNS_9pipelines12registration9PoseGraphE.omp_outlined(ptr noalias noundef readonly captures(none) %0, ptr noalias readnone captures(none) %1, ptr noundef nonnull readonly align 8 captures(none) dereferenceable(8) %2, ptr noundef %3, ptr noundef nonnull align 8 dereferenceable(24) %4, ptr noundef nonnull readonly align 8 captures(none) dereferenceable(24) %5) #35 personality ptr @__gxx_personality_v0 {
  %7 = alloca i32, align 4
  %8 = alloca i32, align 4
  %9 = alloca i32, align 4
  %10 = alloca i32, align 4
  %11 = load i64, ptr %2, align 8, !tbaa !58
  %12 = trunc i64 %11 to i32
  %13 = icmp sgt i32 %12, 0
  br i1 %13, label %14, label %30

14:                                               ; preds = %6
  %15 = add nsw i32 %12, -1
  call void @llvm.lifetime.start.p0(i64 4, ptr nonnull %7) #33
  store i32 0, ptr %7, align 4, !tbaa !29
  call void @llvm.lifetime.start.p0(i64 4, ptr nonnull %8) #33
  store i32 %15, ptr %8, align 4, !tbaa !29
  call void @llvm.lifetime.start.p0(i64 4, ptr nonnull %9) #33
  store i32 1, ptr %9, align 4, !tbaa !29
  call void @llvm.lifetime.start.p0(i64 4, ptr nonnull %10) #33
  store i32 0, ptr %10, align 4, !tbaa !29
  %16 = load i32, ptr %0, align 4, !tbaa !29
  call void @__kmpc_for_static_init_4(ptr nonnull @1, i32 %16, i32 34, ptr nonnull %10, ptr nonnull %7, ptr nonnull %8, ptr nonnull %9, i32 1, i32 1)
  %17 = load i32, ptr %8, align 4, !tbaa !29
  %18 = call i32 @llvm.smin.i32(i32 %17, i32 %15)
  store i32 %18, ptr %8, align 4, !tbaa !29
  %19 = load i32, ptr %7, align 4, !tbaa !29
  %.not16 = icmp sgt i32 %19, %18
  br i1 %.not16, label %._crit_edge, label %.lr.ph.preheader

.lr.ph.preheader:                                 ; preds = %14
  %20 = sext i32 %19 to i64
  br label %.lr.ph

.lr.ph:                                           ; preds = %.lr.ph.preheader, %27
  %indvars.iv = phi i64 [ %20, %.lr.ph.preheader ], [ %indvars.iv.next, %27 ]
  %21 = load ptr, ptr %5, align 8, !tbaa !1276
  %22 = getelementptr inbounds nuw %"class.open3d::apps::offline_reconstruction::MatchingResult", ptr %21, i64 %indvars.iv
  %23 = getelementptr inbounds nuw i8, ptr %22, i64 8
  %24 = load i32, ptr %23, align 8, !tbaa !1278
  %25 = getelementptr inbounds nuw i8, ptr %22, i64 12
  %26 = load i32, ptr %25, align 4, !tbaa !1288
  invoke void @_ZN6open3d4apps22offline_reconstruction22ReconstructionPipeline20RegisterFragmentPairERKSt6vectorINSt7__cxx1112basic_stringIcSt11char_traitsIcESaIcEEESaIS9_EEiiRNS1_14MatchingResultE(ptr noundef nonnull align 8 dereferenceable(52) %3, ptr noundef nonnull align 8 dereferenceable(24) %4, i32 noundef %24, i32 noundef %26, ptr noundef nonnull align 16 dereferenceable(448) %22)
          to label %27 unwind label %31

27:                                               ; preds = %.lr.ph
  %indvars.iv.next = add nsw i64 %indvars.iv, 1
  %28 = load i32, ptr %8, align 4, !tbaa !29
  %29 = sext i32 %28 to i64
  %.not.not = icmp slt i64 %indvars.iv, %29
  br i1 %.not.not, label %.lr.ph, label %._crit_edge

._crit_edge:                                      ; preds = %27, %14
  call void @__kmpc_for_static_fini(ptr nonnull @1, i32 %16)
  call void @llvm.lifetime.end.p0(i64 4, ptr nonnull %10) #33
  call void @llvm.lifetime.end.p0(i64 4, ptr nonnull %9) #33
  call void @llvm.lifetime.end.p0(i64 4, ptr nonnull %8) #33
  call void @llvm.lifetime.end.p0(i64 4, ptr nonnull %7) #33
  br label %30

30:                                               ; preds = %._crit_edge, %6
  ret void

31:                                               ; preds = %.lr.ph
  %32 = landingpad { ptr, i32 }
          catch ptr null
  %33 = extractvalue { ptr, i32 } %32, 0
  call void @__clang_call_terminate(ptr %33) #44
  unreachable
}